ccopy_reg
_reconstructor
p0
(cblog.manage
Post
p1
c__builtin__
object
p2
Ntp3
Rp4
(dp5
S'content'
p6
V<p>At last it is done!</p>
p7
sS'img'
p8
Vstatic/data/__images/Done!_At_last!.jpg
p9
sS'title'
p10
VDone! At last!
p11
sb.