ccopy_reg
_reconstructor
p0
(cblog.manage
Post
p1
c__builtin__
object
p2
Ntp3
Rp4
(dp5
S'content'
p6
S'Some content is displayed here in the 1st post.'
p7
sS'img'
p8
NsS'title'
p9
S'First Post'
p10
sb.