ccopy_reg
_reconstructor
p0
(cblog.manage
Post
p1
c__builtin__
object
p2
Ntp3
Rp4
(dp5
S'content'
p6
S'The flowers on the side, the sky above:\n all of it beckons you.'
p7
sS'img'
p8
NsS'title'
p9
S'The First Post'
p10
sb.